; Function Attrs: nounwind uwtable
define internal void @tablet_tool_handle_removed(ptr noundef %0, ptr noundef %1) #0 {
  %3 = load i32, ptr %0, align 8
  %.not = icmp eq i32 %3, 0
  br i1 %.not, label %5, label %4

4:                                                ; preds = %2
  tail call void @SDL_RemovePenDevice(i64 noundef 0, i32 noundef %3) #12
  br label %5

5:                                                ; preds = %4, %2
  %6 = load ptr, ptr @WAYLAND_wl_proxy_marshal_flags, align 8
  %7 = load ptr, ptr @WAYLAND_wl_proxy_get_version, align 8
  %8 = tail call i32 %7(ptr noundef %1) #12
  %9 = tail call ptr (ptr, i32, ptr, i32, i32, ...) %6(ptr noundef %1, i32 noundef 1, ptr noundef null, i32 noundef %8, i32 noundef 1) #12
  %10 = load ptr, ptr @WAYLAND_wl_list_remove, align 8
  %11 = getelementptr inbounds nuw i8, ptr %0, i64 104
  tail call void %10(ptr noundef nonnull %11) #12
  tail call void @SDL_free_REAL(ptr noundef nonnull %0) #12
  ret void
}